target datalayout = "e-m:e-p270:32:32-p271:32:32-p272:64:64-i64:64-i128:128-f80:128-n8:16:32:64-S128"
target triple = "x86_64-pc-linux-gnu"

%struct.ossl_cmp_pollrep_st = type { ptr, ptr, ptr }

@.str = private unnamed_addr constant [32 x i8] c"../openssl/crypto/cmp/cmp_msg.c\00", align 1
@__func__.ossl_cmp_pollrepcontent_get0_pollrep = private unnamed_addr constant [37 x i8] c"ossl_cmp_pollrepcontent_get0_pollrep\00", align 1
@.str.29 = private unnamed_addr constant [24 x i8] c"expected certReqId = %d\00", align 1
@__func__.suitable_rid = private unnamed_addr constant [13 x i8] c"suitable_rid\00", align 1

; Function Attrs: nounwind uwtable
define internal i32 @suitable_rid(ptr noundef %0, i32 noundef %1) #0 {
  %3 = alloca i32, align 4
  %4 = alloca ptr, align 8
  %5 = alloca i32, align 4
  %6 = alloca i32, align 4
  %7 = alloca i32, align 4
  store ptr %0, ptr %4, align 8, !tbaa !65
  store i32 %1, ptr %5, align 4, !tbaa !20
  call void @llvm.lifetime.start.p0(i64 4, ptr %6) #6
  %8 = load i32, ptr %5, align 4, !tbaa !20
  %9 = icmp eq i32 %8, -1
  br i1 %9, label %10, label %11

10:                                               ; preds = %2
  store i32 1, ptr %3, align 4
  store i32 1, ptr %7, align 4
  br label %22

11:                                               ; preds = %2
  %12 = load ptr, ptr %4, align 8, !tbaa !65
  %13 = call i32 @ossl_cmp_asn1_get_int(ptr noundef %12)
  store i32 %13, ptr %6, align 4, !tbaa !20
  %14 = load i32, ptr %6, align 4, !tbaa !20
  %15 = icmp sle i32 %14, -2
  br i1 %15, label %16, label %17

16:                                               ; preds = %11
  call void @ERR_new()
  call void @ERR_set_debug(ptr noundef @.str, i32 noundef 1045, ptr noundef @__func__.suitable_rid)
  call void (i32, i32, ptr, ...) @ERR_set_error(i32 noundef 58, i32 noundef 108, ptr noundef null)
  store i32 0, ptr %3, align 4
  store i32 1, ptr %7, align 4
  br label %22

17:                                               ; preds = %11
  %18 = load i32, ptr %5, align 4, !tbaa !20
  %19 = load i32, ptr %6, align 4, !tbaa !20
  %20 = icmp eq i32 %18, %19
  %21 = zext i1 %20 to i32
  store i32 %21, ptr %3, align 4
  store i32 1, ptr %7, align 4
  br label %22

22:                                               ; preds = %17, %16, %10
  call void @llvm.lifetime.end.p0(i64 4, ptr %6) #6
  %23 = load i32, ptr %3, align 4
  ret i32 %23
}

; Function Attrs: inlinehint nounwind uwtable
define internal ptr @sk_OSSL_CMP_POLLREP_value(ptr noundef %0, i32 noundef %1) #4 {
  %3 = alloca ptr, align 8
  %4 = alloca i32, align 4
  store ptr %0, ptr %3, align 8, !tbaa !169
  store i32 %1, ptr %4, align 4, !tbaa !20
  %5 = load ptr, ptr %3, align 8, !tbaa !169
  %6 = load i32, ptr %4, align 4, !tbaa !20
  %7 = call ptr @OPENSSL_sk_value(ptr noundef %5, i32 noundef %6)
  ret ptr %7
}

; Function Attrs: inlinehint nounwind uwtable
define internal i32 @sk_OSSL_CMP_POLLREP_num(ptr noundef %0) #4 {
  %2 = alloca ptr, align 8
  store ptr %0, ptr %2, align 8, !tbaa !169
  %3 = load ptr, ptr %2, align 8, !tbaa !169
  %4 = call i32 @OPENSSL_sk_num(ptr noundef %3)
  ret i32 %4
}

; Function Attrs: nounwind uwtable
define ptr @ossl_cmp_pollrepcontent_get0_pollrep(ptr noundef %0, i32 noundef %1) #0 {
  %3 = alloca ptr, align 8
  %4 = alloca ptr, align 8
  %5 = alloca i32, align 4
  %6 = alloca ptr, align 8
  %7 = alloca i32, align 4
  %8 = alloca i32, align 4
  store ptr %0, ptr %4, align 8, !tbaa !169
  store i32 %1, ptr %5, align 4, !tbaa !20
  call void @llvm.lifetime.start.p0(i64 8, ptr %6) #6
  store ptr null, ptr %6, align 8, !tbaa !164
  call void @llvm.lifetime.start.p0(i64 4, ptr %7) #6
  %9 = load ptr, ptr %4, align 8, !tbaa !169
  %10 = icmp ne ptr %9, null
  %11 = zext i1 %10 to i32
  %12 = icmp ne i32 %11, 0
  %13 = xor i1 %12, true
  %14 = xor i1 %13, true
  %15 = zext i1 %14 to i32
  %16 = sext i32 %15 to i64
  %17 = call i64 @llvm.expect.i64(i64 %16, i64 1)
  %18 = icmp ne i64 %17, 0
  br i1 %18, label %20, label %19

19:                                               ; preds = %2
  store ptr null, ptr %3, align 8
  store i32 1, ptr %8, align 4
  br label %44

20:                                               ; preds = %2
  store i32 0, ptr %7, align 4, !tbaa !20
  br label %21

21:                                               ; preds = %39, %20
  %22 = load i32, ptr %7, align 4, !tbaa !20
  %23 = load ptr, ptr %4, align 8, !tbaa !169
  %24 = call i32 @sk_OSSL_CMP_POLLREP_num(ptr noundef %23)
  %25 = icmp slt i32 %22, %24
  br i1 %25, label %26, label %42

26:                                               ; preds = %21
  %27 = load ptr, ptr %4, align 8, !tbaa !169
  %28 = load i32, ptr %7, align 4, !tbaa !20
  %29 = call ptr @sk_OSSL_CMP_POLLREP_value(ptr noundef %27, i32 noundef %28)
  store ptr %29, ptr %6, align 8, !tbaa !164
  %30 = load ptr, ptr %6, align 8, !tbaa !164
  %31 = getelementptr inbounds nuw %struct.ossl_cmp_pollrep_st, ptr %30, i32 0, i32 0
  %32 = load ptr, ptr %31, align 8, !tbaa !166
  %33 = load i32, ptr %5, align 4, !tbaa !20
  %34 = call i32 @suitable_rid(ptr noundef %32, i32 noundef %33)
  %35 = icmp ne i32 %34, 0
  br i1 %35, label %36, label %38

36:                                               ; preds = %26
  %37 = load ptr, ptr %6, align 8, !tbaa !164
  store ptr %37, ptr %3, align 8
  store i32 1, ptr %8, align 4
  br label %44

38:                                               ; preds = %26
  br label %39

39:                                               ; preds = %38
  %40 = load i32, ptr %7, align 4, !tbaa !20
  %41 = add nsw i32 %40, 1
  store i32 %41, ptr %7, align 4, !tbaa !20
  br label %21, !llvm.loop !171

42:                                               ; preds = %21
  call void @ERR_new()
  call void @ERR_set_debug(ptr noundef @.str, i32 noundef 1072, ptr noundef @__func__.ossl_cmp_pollrepcontent_get0_pollrep)
  %43 = load i32, ptr %5, align 4, !tbaa !20
  call void (i32, i32, ptr, ...) @ERR_set_error(i32 noundef 58, i32 noundef 113, ptr noundef @.str.29, i32 noundef %43)
  store ptr null, ptr %3, align 8
  store i32 1, ptr %8, align 4
  br label %44

44:                                               ; preds = %42, %36, %19
  call void @llvm.lifetime.end.p0(i64 4, ptr %7) #6
  call void @llvm.lifetime.end.p0(i64 8, ptr %6) #6
  %45 = load ptr, ptr %3, align 8
  ret ptr %45
}