; Function Attrs: nounwind uwtable
define ptr @ossl_cmp_pollrepcontent_get0_pollrep(ptr noundef %0, i32 noundef %1) local_unnamed_addr #0 {
  %.not = icmp eq ptr %0, null
  br i1 %.not, label %suitable_rid.exit.thread15, label %.preheader, !prof !18

.preheader:                                       ; preds = %2
  %3 = tail call i32 @OPENSSL_sk_num(ptr noundef nonnull %0) #7
  %4 = icmp sgt i32 %3, 0
  br i1 %4, label %.lr.ph, label %._crit_edge

.lr.ph:                                           ; preds = %.preheader
  %5 = icmp eq i32 %1, -1
  br i1 %5, label %.lr.ph.split.us, label %.lr.ph.split

.lr.ph.split.us:                                  ; preds = %.lr.ph
  %6 = tail call ptr @OPENSSL_sk_value(ptr noundef nonnull %0, i32 noundef 0) #7
  br label %suitable_rid.exit.thread15

.lr.ph.split:                                     ; preds = %.lr.ph, %11
  %.019 = phi i32 [ %12, %11 ], [ 0, %.lr.ph ]
  %7 = tail call ptr @OPENSSL_sk_value(ptr noundef nonnull %0, i32 noundef %.019) #7
  %8 = load ptr, ptr %7, align 8, !tbaa !108
  %9 = tail call i32 @ossl_cmp_asn1_get_int(ptr noundef %8) #7
  %10 = icmp slt i32 %9, -1
  br i1 %10, label %suitable_rid.exit.thread, label %suitable_rid.exit

suitable_rid.exit.thread:                         ; preds = %.lr.ph.split
  tail call void @ERR_new() #7
  tail call void @ERR_set_debug(ptr noundef nonnull @.str, i32 noundef 1045, ptr noundef nonnull @__func__.suitable_rid) #7
  tail call void (i32, i32, ptr, ...) @ERR_set_error(i32 noundef 58, i32 noundef 108, ptr noundef null) #7
  br label %11

suitable_rid.exit:                                ; preds = %.lr.ph.split
  %.not18 = icmp eq i32 %1, %9
  br i1 %.not18, label %suitable_rid.exit.thread15, label %11

11:                                               ; preds = %suitable_rid.exit.thread, %suitable_rid.exit
  %12 = add nuw nsw i32 %.019, 1
  %13 = tail call i32 @OPENSSL_sk_num(ptr noundef nonnull %0) #7
  %14 = icmp slt i32 %12, %13
  br i1 %14, label %.lr.ph.split, label %._crit_edge, !llvm.loop !111

._crit_edge:                                      ; preds = %11, %.preheader
  tail call void @ERR_new() #7
  tail call void @ERR_set_debug(ptr noundef nonnull @.str, i32 noundef 1072, ptr noundef nonnull @__func__.ossl_cmp_pollrepcontent_get0_pollrep) #7
  tail call void (i32, i32, ptr, ...) @ERR_set_error(i32 noundef 58, i32 noundef 113, ptr noundef nonnull @.str.29, i32 noundef %1) #7
  br label %suitable_rid.exit.thread15

suitable_rid.exit.thread15:                       ; preds = %suitable_rid.exit, %.lr.ph.split.us, %2, %._crit_edge
  %.010 = phi ptr [ null, %._crit_edge ], [ null, %2 ], [ %6, %.lr.ph.split.us ], [ %7, %suitable_rid.exit ]
  ret ptr %.010
}